; ModuleID = 'source-C-CXX/23/2076.c'
source_filename = "source-C-CXX/23/2076.c"
target datalayout = "e-m:e-p270:32:32-p271:32:32-p272:64:64-i64:64-f80:128-n8:16:32:64-S128"
target triple = "x86_64-pc-linux-gnu"

@.str = private unnamed_addr constant [7 x i8] c"%s\0A%s\0A\00", align 1

; Function Attrs: nounwind sspstrong uwtable
define dso_local i32 @main() local_unnamed_addr #0 {
  %1 = alloca [6000 x i8], align 16
  %2 = alloca [200 x [30 x i8]], align 16
  %3 = alloca [30 x i8], align 16
  %4 = alloca [30 x i8], align 16
  %5 = getelementptr inbounds [6000 x i8], [6000 x i8]* %1, i64 0, i64 0
  call void @llvm.lifetime.start.p0i8(i64 6000, i8* nonnull %5) #6
  %6 = getelementptr inbounds [200 x [30 x i8]], [200 x [30 x i8]]* %2, i64 0, i64 0, i64 0
  call void @llvm.lifetime.start.p0i8(i64 6000, i8* nonnull %6) #6
  %7 = getelementptr inbounds [30 x i8], [30 x i8]* %3, i64 0, i64 0
  call void @llvm.lifetime.start.p0i8(i64 30, i8* nonnull %7) #6
  %8 = getelementptr inbounds [30 x i8], [30 x i8]* %4, i64 0, i64 0
  call void @llvm.lifetime.start.p0i8(i64 30, i8* nonnull %8) #6
  %9 = call i32 (i8*, ...) bitcast (i32 (...)* @gets to i32 (i8*, ...)*)(i8* nonnull %5) #6
  br label %10

10:                                               ; preds = %26, %0
  %11 = phi i64 [ %29, %26 ], [ 0, %0 ]
  %12 = phi i32 [ %27, %26 ], [ 0, %0 ]
  %13 = phi i32 [ %28, %26 ], [ 0, %0 ]
  %14 = getelementptr inbounds [6000 x i8], [6000 x i8]* %1, i64 0, i64 %11
  %15 = load i8, i8* %14, align 1, !tbaa !5
  switch i8 %15, label %21 [
    i8 0, label %30
    i8 32, label %16
    i8 44, label %16
  ]

16:                                               ; preds = %10, %10
  %17 = sext i32 %12 to i64
  %18 = sext i32 %13 to i64
  %19 = getelementptr inbounds [200 x [30 x i8]], [200 x [30 x i8]]* %2, i64 0, i64 %17, i64 %18
  store i8 0, i8* %19, align 1, !tbaa !5
  %20 = add nsw i32 %12, 1
  br label %26

21:                                               ; preds = %10
  %22 = sext i32 %12 to i64
  %23 = sext i32 %13 to i64
  %24 = getelementptr inbounds [200 x [30 x i8]], [200 x [30 x i8]]* %2, i64 0, i64 %22, i64 %23
  store i8 %15, i8* %24, align 1, !tbaa !5
  %25 = add nsw i32 %13, 1
  br label %26

26:                                               ; preds = %16, %21
  %27 = phi i32 [ %20, %16 ], [ %12, %21 ]
  %28 = phi i32 [ 0, %16 ], [ %25, %21 ]
  %29 = add nuw i64 %11, 1
  br label %10, !llvm.loop !8

30:                                               ; preds = %10
  %31 = sext i32 %12 to i64
  %32 = sext i32 %13 to i64
  %33 = getelementptr inbounds [200 x [30 x i8]], [200 x [30 x i8]]* %2, i64 0, i64 %31, i64 %32
  store i8 0, i8* %33, align 1, !tbaa !5
  %34 = call i8* @strcpy(i8* noundef nonnull %7, i8* noundef nonnull %6) #6
  %35 = icmp slt i32 %12, 1
  br i1 %35, label %36, label %38

36:                                               ; preds = %30
  %37 = call i8* @strcpy(i8* noundef nonnull %8, i8* noundef nonnull %6) #6
  br label %70

38:                                               ; preds = %30
  %39 = add nuw i32 %12, 1
  %40 = zext i32 %39 to i64
  br label %41

41:                                               ; preds = %38, %49
  %42 = phi i64 [ 1, %38 ], [ %50, %49 ]
  %43 = getelementptr inbounds [200 x [30 x i8]], [200 x [30 x i8]]* %2, i64 0, i64 %42, i64 0
  %44 = call i64 @strlen(i8* noundef nonnull %43) #7
  %45 = call i64 @strlen(i8* noundef nonnull %7) #7
  %46 = icmp ugt i64 %44, %45
  br i1 %46, label %47, label %49

47:                                               ; preds = %41
  %48 = call i8* @strcpy(i8* noundef nonnull %7, i8* noundef nonnull %43) #6
  br label %49

49:                                               ; preds = %41, %47
  %50 = add nuw nsw i64 %42, 1
  %51 = icmp eq i64 %50, %40
  br i1 %51, label %52, label %41, !llvm.loop !10

52:                                               ; preds = %49
  %53 = call i8* @strcpy(i8* noundef nonnull %8, i8* noundef nonnull %6) #6
  br i1 %35, label %70, label %54

54:                                               ; preds = %52
  %55 = add nuw i32 %12, 1
  %56 = zext i32 %55 to i64
  br label %57

57:                                               ; preds = %54, %67
  %58 = phi i64 [ 1, %54 ], [ %68, %67 ]
  %59 = getelementptr inbounds [200 x [30 x i8]], [200 x [30 x i8]]* %2, i64 0, i64 %58, i64 0
  %60 = call i64 @strlen(i8* noundef nonnull %59) #7
  %61 = call i64 @strlen(i8* noundef nonnull %8) #7
  %62 = icmp uge i64 %60, %61
  %63 = icmp eq i64 %60, 0
  %64 = or i1 %63, %62
  br i1 %64, label %67, label %65

65:                                               ; preds = %57
  %66 = call i8* @strcpy(i8* noundef nonnull %8, i8* noundef nonnull %59) #6
  br label %67

67:                                               ; preds = %57, %65
  %68 = add nuw nsw i64 %58, 1
  %69 = icmp eq i64 %68, %56
  br i1 %69, label %70, label %57, !llvm.loop !11

70:                                               ; preds = %67, %36, %52
  %71 = call i32 (i8*, ...) @printf(i8* nonnull dereferenceable(1) getelementptr inbounds ([7 x i8], [7 x i8]* @.str, i64 0, i64 0), i8* nonnull %7, i8* nonnull %8)
  call void @llvm.lifetime.end.p0i8(i64 30, i8* nonnull %8) #6
  call void @llvm.lifetime.end.p0i8(i64 30, i8* nonnull %7) #6
  call void @llvm.lifetime.end.p0i8(i64 6000, i8* nonnull %6) #6
  call void @llvm.lifetime.end.p0i8(i64 6000, i8* nonnull %5) #6
  ret i32 0
}

; Function Attrs: argmemonly mustprogress nofree nosync nounwind willreturn
declare void @llvm.lifetime.start.p0i8(i64 immarg, i8* nocapture) #1

declare i32 @gets(...) local_unnamed_addr #2

; Function Attrs: argmemonly mustprogress nofree nounwind willreturn
declare i8* @strcpy(i8* noalias returned writeonly, i8* noalias nocapture readonly) local_unnamed_addr #3

; Function Attrs: argmemonly mustprogress nofree nounwind readonly willreturn
declare i64 @strlen(i8* nocapture) local_unnamed_addr #4

; Function Attrs: nofree nounwind
declare noundef i32 @printf(i8* nocapture noundef readonly, ...) local_unnamed_addr #5

; Function Attrs: argmemonly mustprogress nofree nosync nounwind willreturn
declare void @llvm.lifetime.end.p0i8(i64 immarg, i8* nocapture) #1


!llvm.module.flags = !{!0, !1, !2, !3}
!llvm.ident = !{!4}

!0 = !{i32 1, !"wchar_size", i32 4}
!1 = !{i32 7, !"PIC Level", i32 2}
!2 = !{i32 7, !"PIE Level", i32 2}
!3 = !{i32 7, !"uwtable", i32 1}
!4 = !{!"clang version 13.0.0"}
!5 = !{!6, !6, i64 0}
!6 = !{!"omnipotent char", !7, i64 0}
!7 = !{!"Simple C/C++ TBAA"}
!8 = distinct !{!8, !9}
!9 = !{!"llvm.loop.mustprogress"}
!10 = distinct !{!10, !9}
!11 = distinct !{!11, !9}
